; Function Attrs: nounwind uwtable
define void @call_ends(ptr noundef %0) local_unnamed_addr #0 {
  %2 = load ptr, ptr @libHandles, align 16, !tbaa !6
  %.not7 = icmp eq ptr %2, null
  br i1 %.not7, label %._crit_edge, label %.lr.ph

.lr.ph:                                           ; preds = %1, %10
  %3 = phi ptr [ %12, %10 ], [ %2, %1 ]
  %indvars.iv = phi i64 [ %indvars.iv.next, %10 ], [ 0, %1 ]
  %4 = tail call ptr @dlsym(ptr noundef nonnull %3, ptr noundef nonnull @.str.10) #9
  %5 = icmp eq ptr %4, null
  br i1 %5, label %6, label %9

6:                                                ; preds = %.lr.ph
  %7 = trunc nuw nsw i64 %indvars.iv to i32
  %8 = tail call i32 (ptr, ...) @printf(ptr noundef nonnull dereferenceable(1) @.str.11, i32 noundef %7)
  br label %10

9:                                                ; preds = %.lr.ph
  tail call void %4(ptr noundef %0) #9
  br label %10

10:                                               ; preds = %6, %9
  %indvars.iv.next = add nuw nsw i64 %indvars.iv, 1
  %11 = getelementptr inbounds nuw [257 x ptr], ptr @libHandles, i64 0, i64 %indvars.iv.next
  %12 = load ptr, ptr %11, align 8, !tbaa !6
  %.not = icmp eq ptr %12, null
  br i1 %.not, label %._crit_edge, label %.lr.ph, !llvm.loop !12

._crit_edge:                                      ; preds = %10, %1
  ret void
}